---
triple:          'arm64-apple-darwin'
binary-path:     '/Users/uday/Documents/c++/sorting/output/map'
relocations:
  - { offsetInCU: 0x6584, offset: 0x6584, size: 0x8, addend: 0x0, symName: __ZNSt3__124__put_character_sequenceB8ue170006IcNS_11char_traitsIcEEEERNS_13basic_ostreamIT_T0_EES7_PKS4_m, symObjAddr: 0x32D4, symBinAddr: 0x10000642C, symSize: 0x1F4 }
  - { offsetInCU: 0x7ED1, offset: 0x7ED1, size: 0x8, addend: 0x0, symName: __ZNSt3__1neB8ue170006ERKNS_19__hash_map_iteratorINS_15__hash_iteratorIPNS_11__hash_nodeINS_17__hash_value_typeIiiEEPvEEEEEESB_, symObjAddr: 0x6F4, symBinAddr: 0x10000384C, symSize: 0x30 }
  - { offsetInCU: 0x7F0E, offset: 0x7F0E, size: 0x8, addend: 0x0, symName: __ZNSt3__1lsB8ue170006INS_11char_traitsIcEEEERNS_13basic_ostreamIcT_EES6_PKc, symObjAddr: 0x788, symBinAddr: 0x1000038E0, symSize: 0x48 }
  - { offsetInCU: 0x7F54, offset: 0x7F54, size: 0x8, addend: 0x0, symName: __ZNSt3__14endlB8ue170006IcNS_11char_traitsIcEEEERNS_13basic_ostreamIT_T0_EES7_, symObjAddr: 0x7FC, symBinAddr: 0x100003954, symSize: 0x58 }
  - { offsetInCU: 0x7F94, offset: 0x7F94, size: 0x8, addend: 0x0, symName: __ZNSt3__130__libcpp_is_constant_evaluatedB8ue170006Ev, symObjAddr: 0x122C, symBinAddr: 0x100004384, symSize: 0xC }
  - { offsetInCU: 0x7FB1, offset: 0x7FB1, size: 0x8, addend: 0x0, symName: __ZNSt3__119__libcpp_deallocateB8ue170006EPvmm, symObjAddr: 0x1238, symBinAddr: 0x100004390, symSize: 0x30 }
  - { offsetInCU: 0x7FF9, offset: 0x7FF9, size: 0x8, addend: 0x0, symName: __ZNSt3__127__do_deallocate_handle_sizeB8ue170006IJEEEvPvmDpT_, symObjAddr: 0x1268, symBinAddr: 0x1000043C0, symSize: 0x28 }
  - { offsetInCU: 0x8037, offset: 0x8037, size: 0x8, addend: 0x0, symName: __ZNSt3__124__libcpp_operator_deleteB8ue170006IJPvEEEvDpT_, symObjAddr: 0x1290, symBinAddr: 0x1000043E8, symSize: 0x24 }
  - { offsetInCU: 0x80BD, offset: 0x80BD, size: 0x8, addend: 0x0, symName: __ZNSt3__117__libcpp_allocateB8ue170006Emm, symObjAddr: 0x1B44, symBinAddr: 0x100004C9C, symSize: 0x28 }
  - { offsetInCU: 0x80FA, offset: 0x80FA, size: 0x8, addend: 0x0, symName: __ZNSt3__121__libcpp_operator_newB8ue170006IJmEEEPvDpT_, symObjAddr: 0x1B84, symBinAddr: 0x100004CDC, symSize: 0x24 }
  - { offsetInCU: 0x8133, offset: 0x8133, size: 0x8, addend: 0x0, symName: __ZNSt3__116__constrain_hashB8ue170006Emm, symObjAddr: 0x2334, symBinAddr: 0x10000548C, symSize: 0x98 }
  - { offsetInCU: 0x816D, offset: 0x816D, size: 0x8, addend: 0x0, symName: __ZNSt3__13maxB8ue170006ImEERKT_S3_S3_, symObjAddr: 0x24F8, symBinAddr: 0x100005650, symSize: 0x2C }
  - { offsetInCU: 0x81B0, offset: 0x81B0, size: 0x8, addend: 0x0, symName: __ZNSt3__116__is_hash_power2B8ue170006Em, symObjAddr: 0x2524, symBinAddr: 0x10000567C, symSize: 0x50 }
  - { offsetInCU: 0x81DC, offset: 0x81DC, size: 0x8, addend: 0x0, symName: __ZNSt3__116__next_hash_pow2B8ue170006Em, symObjAddr: 0x2B7C, symBinAddr: 0x100005CD4, symSize: 0x6C }
  - { offsetInCU: 0x8224, offset: 0x8224, size: 0x8, addend: 0x0, symName: __ZNSt3__112__libcpp_clzB8ue170006Em, symObjAddr: 0x2D6C, symBinAddr: 0x100005EC4, symSize: 0x1C }
  - { offsetInCU: 0x8250, offset: 0x8250, size: 0x8, addend: 0x0, symName: __ZNSt3__13maxB8ue170006ImNS_6__lessIvvEEEERKT_S5_S5_T0_, symObjAddr: 0x2D88, symBinAddr: 0x100005EE0, symSize: 0x54 }
  - { offsetInCU: 0x82EF, offset: 0x82EF, size: 0x8, addend: 0x0, symName: __ZNSt3__1neB8ue170006ERKNS_15__hash_iteratorIPNS_11__hash_nodeINS_17__hash_value_typeIiiEEPvEEEES9_, symObjAddr: 0x31CC, symBinAddr: 0x100006324, symSize: 0x34 }
  - { offsetInCU: 0x832C, offset: 0x832C, size: 0x8, addend: 0x0, symName: __ZNSt3__1eqB8ue170006ERKNS_15__hash_iteratorIPNS_11__hash_nodeINS_17__hash_value_typeIiiEEPvEEEES9_, symObjAddr: 0x3200, symBinAddr: 0x100006358, symSize: 0x30 }
  - { offsetInCU: 0x83CF, offset: 0x83CF, size: 0x8, addend: 0x0, symName: __ZNSt3__116__pad_and_outputB8ue170006IcNS_11char_traitsIcEEEENS_19ostreambuf_iteratorIT_T0_EES6_PKS4_S8_S8_RNS_8ios_baseES4_, symObjAddr: 0x352C, symBinAddr: 0x100006684, symSize: 0x248 }
  - { offsetInCU: 0x849E, offset: 0x849E, size: 0x8, addend: 0x0, symName: __ZNSt3__112__to_addressB8ue170006IKcEEPT_S3_, symObjAddr: 0x3A9C, symBinAddr: 0x100006BF4, symSize: 0x14 }
  - { offsetInCU: 0x8506, offset: 0x8506, size: 0x8, addend: 0x0, symName: __ZNSt3__19use_facetB8ue170006INS_5ctypeIcEEEERKT_RKNS_6localeE, symObjAddr: 0x3D74, symBinAddr: 0x100006ECC, symSize: 0x2C }
  - { offsetInCU: 0x89D3, offset: 0x89D3, size: 0x8, addend: 0x0, symName: __ZNSt3__118__constexpr_strlenB8ue170006EPKc, symObjAddr: 0x3E0C, symBinAddr: 0x100006F64, symSize: 0x24 }
  - { offsetInCU: 0x8A35, offset: 0x8A35, size: 0x8, addend: 0x0, symName: __ZSt28__throw_bad_array_new_lengthB8ue170006v, symObjAddr: 0x1B10, symBinAddr: 0x100004C68, symSize: 0x34 }
  - { offsetInCU: 0xB5DD, offset: 0xB5DD, size: 0x8, addend: 0x0, symName: _main, symObjAddr: 0x0, symBinAddr: 0x100003158, symSize: 0x53C }
  - { offsetInCU: 0xB697, offset: 0xB697, size: 0x8, addend: 0x0, symName: __ZNSt3__113unordered_mapIiiNS_4hashIiEENS_8equal_toIiEENS_9allocatorINS_4pairIKiiEEEEEC1B8ue170006Ev, symObjAddr: 0x53C, symBinAddr: 0x100003694, symSize: 0x2C }
  - { offsetInCU: 0xB6C0, offset: 0xB6C0, size: 0x8, addend: 0x0, symName: __ZNSt3__113unordered_mapIiiNS_4hashIiEENS_8equal_toIiEENS_9allocatorINS_4pairIKiiEEEEEixERS7_, symObjAddr: 0x568, symBinAddr: 0x1000036C0, symSize: 0x128 }
  - { offsetInCU: 0xB725, offset: 0xB725, size: 0x8, addend: 0x0, symName: __ZNSt3__119__hash_map_iteratorINS_15__hash_iteratorIPNS_11__hash_nodeINS_17__hash_value_typeIiiEEPvEEEEEC1B8ue170006Ev, symObjAddr: 0x690, symBinAddr: 0x1000037E8, symSize: 0x2C }
  - { offsetInCU: 0xB74E, offset: 0xB74E, size: 0x8, addend: 0x0, symName: __ZNSt3__113unordered_mapIiiNS_4hashIiEENS_8equal_toIiEENS_9allocatorINS_4pairIKiiEEEEE5beginB8ue170006Ev, symObjAddr: 0x6BC, symBinAddr: 0x100003814, symSize: 0x38 }
  - { offsetInCU: 0xB774, offset: 0xB774, size: 0x8, addend: 0x0, symName: __ZNSt3__113unordered_mapIiiNS_4hashIiEENS_8equal_toIiEENS_9allocatorINS_4pairIKiiEEEEE3endB8ue170006Ev, symObjAddr: 0x724, symBinAddr: 0x10000387C, symSize: 0x38 }
  - { offsetInCU: 0xB79A, offset: 0xB79A, size: 0x8, addend: 0x0, symName: __ZNKSt3__119__hash_map_iteratorINS_15__hash_iteratorIPNS_11__hash_nodeINS_17__hash_value_typeIiiEEPvEEEEEptB8ue170006Ev, symObjAddr: 0x75C, symBinAddr: 0x1000038B4, symSize: 0x2C }
  - { offsetInCU: 0xB7C0, offset: 0xB7C0, size: 0x8, addend: 0x0, symName: __ZNSt3__113basic_ostreamIcNS_11char_traitsIcEEElsB8ue170006EPFRS3_S4_E, symObjAddr: 0x7D0, symBinAddr: 0x100003928, symSize: 0x2C }
  - { offsetInCU: 0xB7F4, offset: 0xB7F4, size: 0x8, addend: 0x0, symName: __ZNSt3__119__hash_map_iteratorINS_15__hash_iteratorIPNS_11__hash_nodeINS_17__hash_value_typeIiiEEPvEEEEEppB8ue170006Ei, symObjAddr: 0x854, symBinAddr: 0x1000039AC, symSize: 0x34 }
  - { offsetInCU: 0xB835, offset: 0xB835, size: 0x8, addend: 0x0, symName: __ZNSt3__113unordered_mapIiiNS_4hashIiEENS_8equal_toIiEENS_9allocatorINS_4pairIKiiEEEEE4findB8ue170006ERS7_, symObjAddr: 0x888, symBinAddr: 0x1000039E0, symSize: 0x40 }
  - { offsetInCU: 0xB86A, offset: 0xB86A, size: 0x8, addend: 0x0, symName: __ZNSt3__113unordered_mapIiiNS_4hashIiEENS_8equal_toIiEENS_9allocatorINS_4pairIKiiEEEEE5eraseB8ue170006ERS7_, symObjAddr: 0x8C8, symBinAddr: 0x100003A20, symSize: 0x2C }
  - { offsetInCU: 0xB89F, offset: 0xB89F, size: 0x8, addend: 0x0, symName: __ZNSt3__113unordered_mapIiiNS_4hashIiEENS_8equal_toIiEENS_9allocatorINS_4pairIKiiEEEEED1B8ue170006Ev, symObjAddr: 0x8F4, symBinAddr: 0x100003A4C, symSize: 0x2C }
  - { offsetInCU: 0xB8C8, offset: 0xB8C8, size: 0x8, addend: 0x0, symName: __ZNSt3__113unordered_mapIiiNS_4hashIiEENS_8equal_toIiEENS_9allocatorINS_4pairIKiiEEEEEC2B8ue170006Ev, symObjAddr: 0x92C, symBinAddr: 0x100003A84, symSize: 0x2C }
  - { offsetInCU: 0xB8F1, offset: 0xB8F1, size: 0x8, addend: 0x0, symName: __ZNSt3__112__hash_tableINS_17__hash_value_typeIiiEENS_22__unordered_map_hasherIiS2_NS_4hashIiEENS_8equal_toIiEELb1EEENS_21__unordered_map_equalIiS2_S7_S5_Lb1EEENS_9allocatorIS2_EEEC1Ev, symObjAddr: 0x958, symBinAddr: 0x100003AB0, symSize: 0x2C }
  - { offsetInCU: 0xB91D, offset: 0xB91D, size: 0x8, addend: 0x0, symName: __ZNSt3__112__hash_tableINS_17__hash_value_typeIiiEENS_22__unordered_map_hasherIiS2_NS_4hashIiEENS_8equal_toIiEELb1EEENS_21__unordered_map_equalIiS2_S7_S5_Lb1EEENS_9allocatorIS2_EEEC2Ev, symObjAddr: 0x984, symBinAddr: 0x100003ADC, symSize: 0xA4 }
  - { offsetInCU: 0xB949, offset: 0xB949, size: 0x8, addend: 0x0, symName: __ZNSt3__110unique_ptrIA_PNS_16__hash_node_baseIPNS_11__hash_nodeINS_17__hash_value_typeIiiEEPvEEEENS_25__bucket_list_deallocatorINS_9allocatorIS9_EEEEEC1B8ue170006ILb1EvEEv, symObjAddr: 0xA28, symBinAddr: 0x100003B80, symSize: 0x2C }
  - { offsetInCU: 0xB97D, offset: 0xB97D, size: 0x8, addend: 0x0, symName: __ZNSt3__117__compressed_pairINS_16__hash_node_baseIPNS_11__hash_nodeINS_17__hash_value_typeIiiEEPvEEEENS_9allocatorIS6_EEEC1B8ue170006ILb1EvEEv, symObjAddr: 0xA54, symBinAddr: 0x100003BAC, symSize: 0x2C }
  - { offsetInCU: 0xB9BB, offset: 0xB9BB, size: 0x8, addend: 0x0, symName: __ZNSt3__117__compressed_pairImNS_22__unordered_map_hasherIiNS_17__hash_value_typeIiiEENS_4hashIiEENS_8equal_toIiEELb1EEEEC1B8ue170006IiNS_18__default_init_tagEEEOT_OT0_, symObjAddr: 0xA80, symBinAddr: 0x100003BD8, symSize: 0x3C }
  - { offsetInCU: 0xBA17, offset: 0xBA17, size: 0x8, addend: 0x0, symName: __ZNSt3__117__compressed_pairIfNS_21__unordered_map_equalIiNS_17__hash_value_typeIiiEENS_8equal_toIiEENS_4hashIiEELb1EEEEC1B8ue170006IfNS_18__default_init_tagEEEOT_OT0_, symObjAddr: 0xABC, symBinAddr: 0x100003C14, symSize: 0x3C }
  - { offsetInCU: 0xBA6E, offset: 0xBA6E, size: 0x8, addend: 0x0, symName: __ZNSt3__110unique_ptrIA_PNS_16__hash_node_baseIPNS_11__hash_nodeINS_17__hash_value_typeIiiEEPvEEEENS_25__bucket_list_deallocatorINS_9allocatorIS9_EEEEED1B8ue170006Ev, symObjAddr: 0xAF8, symBinAddr: 0x100003C50, symSize: 0x2C }
  - { offsetInCU: 0xBA97, offset: 0xBA97, size: 0x8, addend: 0x0, symName: __ZNSt3__110unique_ptrIA_PNS_16__hash_node_baseIPNS_11__hash_nodeINS_17__hash_value_typeIiiEEPvEEEENS_25__bucket_list_deallocatorINS_9allocatorIS9_EEEEEC2B8ue170006ILb1EvEEv, symObjAddr: 0xB24, symBinAddr: 0x100003C7C, symSize: 0x50 }
  - { offsetInCU: 0xBAD0, offset: 0xBAD0, size: 0x8, addend: 0x0, symName: __ZNSt3__117__compressed_pairIPPNS_16__hash_node_baseIPNS_11__hash_nodeINS_17__hash_value_typeIiiEEPvEEEENS_25__bucket_list_deallocatorINS_9allocatorIS9_EEEEEC1B8ue170006INS_16__value_init_tagESH_EEOT_OT0_, symObjAddr: 0xB74, symBinAddr: 0x100003CCC, symSize: 0x3C }
  - { offsetInCU: 0xBB27, offset: 0xBB27, size: 0x8, addend: 0x0, symName: __ZNSt3__117__compressed_pairIPPNS_16__hash_node_baseIPNS_11__hash_nodeINS_17__hash_value_typeIiiEEPvEEEENS_25__bucket_list_deallocatorINS_9allocatorIS9_EEEEEC2B8ue170006INS_16__value_init_tagESH_EEOT_OT0_, symObjAddr: 0xBB0, symBinAddr: 0x100003D08, symSize: 0x40 }
  - { offsetInCU: 0xBB7E, offset: 0xBB7E, size: 0x8, addend: 0x0, symName: __ZNSt3__122__compressed_pair_elemIPPNS_16__hash_node_baseIPNS_11__hash_nodeINS_17__hash_value_typeIiiEEPvEEEELi0ELb0EEC2B8ue170006ENS_16__value_init_tagE, symObjAddr: 0xBF0, symBinAddr: 0x100003D48, symSize: 0x18 }
  - { offsetInCU: 0xBBB3, offset: 0xBBB3, size: 0x8, addend: 0x0, symName: __ZNSt3__122__compressed_pair_elemINS_25__bucket_list_deallocatorINS_9allocatorIPNS_16__hash_node_baseIPNS_11__hash_nodeINS_17__hash_value_typeIiiEEPvEEEEEEEELi1ELb0EEC2B8ue170006ENS_16__value_init_tagE, symObjAddr: 0xC08, symBinAddr: 0x100003D60, symSize: 0x2C }
  - { offsetInCU: 0xBBE7, offset: 0xBBE7, size: 0x8, addend: 0x0, symName: __ZNSt3__125__bucket_list_deallocatorINS_9allocatorIPNS_16__hash_node_baseIPNS_11__hash_nodeINS_17__hash_value_typeIiiEEPvEEEEEEEC1B8ue170006Ev, symObjAddr: 0xC34, symBinAddr: 0x100003D8C, symSize: 0x2C }
  - { offsetInCU: 0xBC10, offset: 0xBC10, size: 0x8, addend: 0x0, symName: __ZNSt3__125__bucket_list_deallocatorINS_9allocatorIPNS_16__hash_node_baseIPNS_11__hash_nodeINS_17__hash_value_typeIiiEEPvEEEEEEEC2B8ue170006Ev, symObjAddr: 0xC60, symBinAddr: 0x100003DB8, symSize: 0x38 }
  - { offsetInCU: 0xBC39, offset: 0xBC39, size: 0x8, addend: 0x0, symName: __ZNSt3__117__compressed_pairImNS_9allocatorIPNS_16__hash_node_baseIPNS_11__hash_nodeINS_17__hash_value_typeIiiEEPvEEEEEEEC1B8ue170006IiNS_18__default_init_tagEEEOT_OT0_, symObjAddr: 0xC98, symBinAddr: 0x100003DF0, symSize: 0x3C }
  - { offsetInCU: 0xBC90, offset: 0xBC90, size: 0x8, addend: 0x0, symName: __ZNSt3__117__compressed_pairImNS_9allocatorIPNS_16__hash_node_baseIPNS_11__hash_nodeINS_17__hash_value_typeIiiEEPvEEEEEEEC2B8ue170006IiNS_18__default_init_tagEEEOT_OT0_, symObjAddr: 0xCD4, symBinAddr: 0x100003E2C, symSize: 0x40 }
  - { offsetInCU: 0xBCE7, offset: 0xBCE7, size: 0x8, addend: 0x0, symName: __ZNSt3__122__compressed_pair_elemImLi0ELb0EEC2B8ue170006IivEEOT_, symObjAddr: 0xD14, symBinAddr: 0x100003E6C, symSize: 0x24 }
  - { offsetInCU: 0xBD29, offset: 0xBD29, size: 0x8, addend: 0x0, symName: __ZNSt3__122__compressed_pair_elemINS_9allocatorIPNS_16__hash_node_baseIPNS_11__hash_nodeINS_17__hash_value_typeIiiEEPvEEEEEELi1ELb1EEC2B8ue170006ENS_18__default_init_tagE, symObjAddr: 0xD38, symBinAddr: 0x100003E90, symSize: 0x2C }
  - { offsetInCU: 0xBD5D, offset: 0xBD5D, size: 0x8, addend: 0x0, symName: __ZNSt3__19allocatorIPNS_16__hash_node_baseIPNS_11__hash_nodeINS_17__hash_value_typeIiiEEPvEEEEEC2B8ue170006Ev, symObjAddr: 0xD64, symBinAddr: 0x100003EBC, symSize: 0x2C }
  - { offsetInCU: 0xBD86, offset: 0xBD86, size: 0x8, addend: 0x0, symName: __ZNSt3__116__non_trivial_ifILb1ENS_9allocatorIPNS_16__hash_node_baseIPNS_11__hash_nodeINS_17__hash_value_typeIiiEEPvEEEEEEEC2B8ue170006Ev, symObjAddr: 0xD90, symBinAddr: 0x100003EE8, symSize: 0x14 }
  - { offsetInCU: 0xBDB0, offset: 0xBDB0, size: 0x8, addend: 0x0, symName: __ZNSt3__117__compressed_pairINS_16__hash_node_baseIPNS_11__hash_nodeINS_17__hash_value_typeIiiEEPvEEEENS_9allocatorIS6_EEEC2B8ue170006ILb1EvEEv, symObjAddr: 0xDA4, symBinAddr: 0x100003EFC, symSize: 0x34 }
  - { offsetInCU: 0xBDE4, offset: 0xBDE4, size: 0x8, addend: 0x0, symName: __ZNSt3__122__compressed_pair_elemINS_16__hash_node_baseIPNS_11__hash_nodeINS_17__hash_value_typeIiiEEPvEEEELi0ELb0EEC2B8ue170006ENS_16__value_init_tagE, symObjAddr: 0xDD8, symBinAddr: 0x100003F30, symSize: 0x2C }
  - { offsetInCU: 0xBE18, offset: 0xBE18, size: 0x8, addend: 0x0, symName: __ZNSt3__122__compressed_pair_elemINS_9allocatorINS_11__hash_nodeINS_17__hash_value_typeIiiEEPvEEEELi1ELb1EEC2B8ue170006ENS_16__value_init_tagE, symObjAddr: 0xE04, symBinAddr: 0x100003F5C, symSize: 0x2C }
  - { offsetInCU: 0xBE4C, offset: 0xBE4C, size: 0x8, addend: 0x0, symName: __ZNSt3__116__hash_node_baseIPNS_11__hash_nodeINS_17__hash_value_typeIiiEEPvEEEC1B8ue170006Ev, symObjAddr: 0xE30, symBinAddr: 0x100003F88, symSize: 0x2C }
  - { offsetInCU: 0xBE75, offset: 0xBE75, size: 0x8, addend: 0x0, symName: __ZNSt3__116__hash_node_baseIPNS_11__hash_nodeINS_17__hash_value_typeIiiEEPvEEEC2B8ue170006Ev, symObjAddr: 0xE5C, symBinAddr: 0x100003FB4, symSize: 0x18 }
  - { offsetInCU: 0xBE9F, offset: 0xBE9F, size: 0x8, addend: 0x0, symName: __ZNSt3__19allocatorINS_11__hash_nodeINS_17__hash_value_typeIiiEEPvEEEC2B8ue170006Ev, symObjAddr: 0xE74, symBinAddr: 0x100003FCC, symSize: 0x2C }
  - { offsetInCU: 0xBEC8, offset: 0xBEC8, size: 0x8, addend: 0x0, symName: __ZNSt3__116__non_trivial_ifILb1ENS_9allocatorINS_11__hash_nodeINS_17__hash_value_typeIiiEEPvEEEEEC2B8ue170006Ev, symObjAddr: 0xEA0, symBinAddr: 0x100003FF8, symSize: 0x14 }
  - { offsetInCU: 0xBEF2, offset: 0xBEF2, size: 0x8, addend: 0x0, symName: __ZNSt3__117__compressed_pairImNS_22__unordered_map_hasherIiNS_17__hash_value_typeIiiEENS_4hashIiEENS_8equal_toIiEELb1EEEEC2B8ue170006IiNS_18__default_init_tagEEEOT_OT0_, symObjAddr: 0xEB4, symBinAddr: 0x10000400C, symSize: 0x40 }
  - { offsetInCU: 0xBF49, offset: 0xBF49, size: 0x8, addend: 0x0, symName: __ZNSt3__122__compressed_pair_elemINS_22__unordered_map_hasherIiNS_17__hash_value_typeIiiEENS_4hashIiEENS_8equal_toIiEELb1EEELi1ELb1EEC2B8ue170006ENS_18__default_init_tagE, symObjAddr: 0xEF4, symBinAddr: 0x10000404C, symSize: 0x2C }
  - { offsetInCU: 0xBF7D, offset: 0xBF7D, size: 0x8, addend: 0x0, symName: __ZNSt3__122__unordered_map_hasherIiNS_17__hash_value_typeIiiEENS_4hashIiEENS_8equal_toIiEELb1EEC2B8ue170006Ev, symObjAddr: 0xF20, symBinAddr: 0x100004078, symSize: 0x14 }
  - { offsetInCU: 0xBFA7, offset: 0xBFA7, size: 0x8, addend: 0x0, symName: __ZNSt3__117__compressed_pairIfNS_21__unordered_map_equalIiNS_17__hash_value_typeIiiEENS_8equal_toIiEENS_4hashIiEELb1EEEEC2B8ue170006IfNS_18__default_init_tagEEEOT_OT0_, symObjAddr: 0xF34, symBinAddr: 0x10000408C, symSize: 0x40 }
  - { offsetInCU: 0xBFFE, offset: 0xBFFE, size: 0x8, addend: 0x0, symName: __ZNSt3__122__compressed_pair_elemIfLi0ELb0EEC2B8ue170006IfvEEOT_, symObjAddr: 0xF74, symBinAddr: 0x1000040CC, symSize: 0x24 }
  - { offsetInCU: 0xC040, offset: 0xC040, size: 0x8, addend: 0x0, symName: __ZNSt3__122__compressed_pair_elemINS_21__unordered_map_equalIiNS_17__hash_value_typeIiiEENS_8equal_toIiEENS_4hashIiEELb1EEELi1ELb1EEC2B8ue170006ENS_18__default_init_tagE, symObjAddr: 0xF98, symBinAddr: 0x1000040F0, symSize: 0x2C }
  - { offsetInCU: 0xC074, offset: 0xC074, size: 0x8, addend: 0x0, symName: __ZNSt3__121__unordered_map_equalIiNS_17__hash_value_typeIiiEENS_8equal_toIiEENS_4hashIiEELb1EEC2B8ue170006Ev, symObjAddr: 0xFC4, symBinAddr: 0x10000411C, symSize: 0x14 }
  - { offsetInCU: 0xC09E, offset: 0xC09E, size: 0x8, addend: 0x0, symName: __ZNSt3__110unique_ptrIA_PNS_16__hash_node_baseIPNS_11__hash_nodeINS_17__hash_value_typeIiiEEPvEEEENS_25__bucket_list_deallocatorINS_9allocatorIS9_EEEEED2B8ue170006Ev, symObjAddr: 0xFD8, symBinAddr: 0x100004130, symSize: 0x30 }
  - { offsetInCU: 0xC0C7, offset: 0xC0C7, size: 0x8, addend: 0x0, symName: __ZNSt3__110unique_ptrIA_PNS_16__hash_node_baseIPNS_11__hash_nodeINS_17__hash_value_typeIiiEEPvEEEENS_25__bucket_list_deallocatorINS_9allocatorIS9_EEEEE5resetB8ue170006EDn, symObjAddr: 0x1008, symBinAddr: 0x100004160, symSize: 0x6C }
  - { offsetInCU: 0xC108, offset: 0xC108, size: 0x8, addend: 0x0, symName: __ZNSt3__117__compressed_pairIPPNS_16__hash_node_baseIPNS_11__hash_nodeINS_17__hash_value_typeIiiEEPvEEEENS_25__bucket_list_deallocatorINS_9allocatorIS9_EEEEE5firstB8ue170006Ev, symObjAddr: 0x1074, symBinAddr: 0x1000041CC, symSize: 0x24 }
  - { offsetInCU: 0xC12E, offset: 0xC12E, size: 0x8, addend: 0x0, symName: __ZNSt3__117__compressed_pairIPPNS_16__hash_node_baseIPNS_11__hash_nodeINS_17__hash_value_typeIiiEEPvEEEENS_25__bucket_list_deallocatorINS_9allocatorIS9_EEEEE6secondB8ue170006Ev, symObjAddr: 0x1098, symBinAddr: 0x1000041F0, symSize: 0x28 }
  - { offsetInCU: 0xC154, offset: 0xC154, size: 0x8, addend: 0x0, symName: __ZNSt3__125__bucket_list_deallocatorINS_9allocatorIPNS_16__hash_node_baseIPNS_11__hash_nodeINS_17__hash_value_typeIiiEEPvEEEEEEEclB8ue170006EPSA_, symObjAddr: 0x10C0, symBinAddr: 0x100004218, symSize: 0x58 }
  - { offsetInCU: 0xC189, offset: 0xC189, size: 0x8, addend: 0x0, symName: __ZNSt3__122__compressed_pair_elemIPPNS_16__hash_node_baseIPNS_11__hash_nodeINS_17__hash_value_typeIiiEEPvEEEELi0ELb0EE5__getB8ue170006Ev, symObjAddr: 0x1118, symBinAddr: 0x100004270, symSize: 0x14 }
  - { offsetInCU: 0xC1AF, offset: 0xC1AF, size: 0x8, addend: 0x0, symName: __ZNSt3__122__compressed_pair_elemINS_25__bucket_list_deallocatorINS_9allocatorIPNS_16__hash_node_baseIPNS_11__hash_nodeINS_17__hash_value_typeIiiEEPvEEEEEEEELi1ELb0EE5__getB8ue170006Ev, symObjAddr: 0x112C, symBinAddr: 0x100004284, symSize: 0x14 }
  - { offsetInCU: 0xC1D5, offset: 0xC1D5, size: 0x8, addend: 0x0, symName: __ZNSt3__116allocator_traitsINS_9allocatorIPNS_16__hash_node_baseIPNS_11__hash_nodeINS_17__hash_value_typeIiiEEPvEEEEEEE10deallocateB8ue170006ERSB_PSA_m, symObjAddr: 0x1140, symBinAddr: 0x100004298, symSize: 0x34 }
  - { offsetInCU: 0xC217, offset: 0xC217, size: 0x8, addend: 0x0, symName: __ZNSt3__125__bucket_list_deallocatorINS_9allocatorIPNS_16__hash_node_baseIPNS_11__hash_nodeINS_17__hash_value_typeIiiEEPvEEEEEEE7__allocB8ue170006Ev, symObjAddr: 0x1174, symBinAddr: 0x1000042CC, symSize: 0x24 }
  - { offsetInCU: 0xC23D, offset: 0xC23D, size: 0x8, addend: 0x0, symName: __ZNSt3__125__bucket_list_deallocatorINS_9allocatorIPNS_16__hash_node_baseIPNS_11__hash_nodeINS_17__hash_value_typeIiiEEPvEEEEEEE4sizeB8ue170006Ev, symObjAddr: 0x1198, symBinAddr: 0x1000042F0, symSize: 0x24 }
  - { offsetInCU: 0xC263, offset: 0xC263, size: 0x8, addend: 0x0, symName: __ZNSt3__19allocatorIPNS_16__hash_node_baseIPNS_11__hash_nodeINS_17__hash_value_typeIiiEEPvEEEEE10deallocateB8ue170006EPS9_m, symObjAddr: 0x11BC, symBinAddr: 0x100004314, symSize: 0x70 }
  - { offsetInCU: 0xC2A5, offset: 0xC2A5, size: 0x8, addend: 0x0, symName: __ZNSt3__117__compressed_pairImNS_9allocatorIPNS_16__hash_node_baseIPNS_11__hash_nodeINS_17__hash_value_typeIiiEEPvEEEEEEE6secondB8ue170006Ev, symObjAddr: 0x12B4, symBinAddr: 0x10000440C, symSize: 0x24 }
  - { offsetInCU: 0xC2CB, offset: 0xC2CB, size: 0x8, addend: 0x0, symName: __ZNSt3__122__compressed_pair_elemINS_9allocatorIPNS_16__hash_node_baseIPNS_11__hash_nodeINS_17__hash_value_typeIiiEEPvEEEEEELi1ELb1EE5__getB8ue170006Ev, symObjAddr: 0x12D8, symBinAddr: 0x100004430, symSize: 0x14 }
  - { offsetInCU: 0xC2F1, offset: 0xC2F1, size: 0x8, addend: 0x0, symName: __ZNSt3__117__compressed_pairImNS_9allocatorIPNS_16__hash_node_baseIPNS_11__hash_nodeINS_17__hash_value_typeIiiEEPvEEEEEEE5firstB8ue170006Ev, symObjAddr: 0x12EC, symBinAddr: 0x100004444, symSize: 0x24 }
  - { offsetInCU: 0xC317, offset: 0xC317, size: 0x8, addend: 0x0, symName: __ZNSt3__122__compressed_pair_elemImLi0ELb0EE5__getB8ue170006Ev, symObjAddr: 0x1310, symBinAddr: 0x100004468, symSize: 0x14 }
  - { offsetInCU: 0xC33D, offset: 0xC33D, size: 0x8, addend: 0x0, symName: __ZNSt3__113unordered_mapIiiNS_4hashIiEENS_8equal_toIiEENS_9allocatorINS_4pairIKiiEEEEED2B8ue170006Ev, symObjAddr: 0x1324, symBinAddr: 0x10000447C, symSize: 0x2C }
  - { offsetInCU: 0xC366, offset: 0xC366, size: 0x8, addend: 0x0, symName: __ZNSt3__112__hash_tableINS_17__hash_value_typeIiiEENS_22__unordered_map_hasherIiS2_NS_4hashIiEENS_8equal_toIiEELb1EEENS_21__unordered_map_equalIiS2_S7_S5_Lb1EEENS_9allocatorIS2_EEED1Ev, symObjAddr: 0x1350, symBinAddr: 0x1000044A8, symSize: 0x2C }
  - { offsetInCU: 0xC392, offset: 0xC392, size: 0x8, addend: 0x0, symName: __ZNSt3__112__hash_tableINS_17__hash_value_typeIiiEENS_22__unordered_map_hasherIiS2_NS_4hashIiEENS_8equal_toIiEELb1EEENS_21__unordered_map_equalIiS2_S7_S5_Lb1EEENS_9allocatorIS2_EEED2Ev, symObjAddr: 0x137C, symBinAddr: 0x1000044D4, symSize: 0x48 }
  - { offsetInCU: 0xC3BE, offset: 0xC3BE, size: 0x8, addend: 0x0, symName: __ZNSt3__112__hash_tableINS_17__hash_value_typeIiiEENS_22__unordered_map_hasherIiS2_NS_4hashIiEENS_8equal_toIiEELb1EEENS_21__unordered_map_equalIiS2_S7_S5_Lb1EEENS_9allocatorIS2_EEE17__deallocate_nodeEPNS_16__hash_node_baseIPNS_11__hash_nodeIS2_PvEEEE, symObjAddr: 0x13C4, symBinAddr: 0x10000451C, symSize: 0xBC }
  - { offsetInCU: 0xC428, offset: 0xC428, size: 0x8, addend: 0x0, symName: __ZNSt3__117__compressed_pairINS_16__hash_node_baseIPNS_11__hash_nodeINS_17__hash_value_typeIiiEEPvEEEENS_9allocatorIS6_EEE5firstB8ue170006Ev, symObjAddr: 0x1480, symBinAddr: 0x1000045D8, symSize: 0x24 }
  - { offsetInCU: 0xC44E, offset: 0xC44E, size: 0x8, addend: 0x0, symName: __ZNSt3__112__hash_tableINS_17__hash_value_typeIiiEENS_22__unordered_map_hasherIiS2_NS_4hashIiEENS_8equal_toIiEELb1EEENS_21__unordered_map_equalIiS2_S7_S5_Lb1EEENS_9allocatorIS2_EEE12__node_allocB8ue170006Ev, symObjAddr: 0x14A4, symBinAddr: 0x1000045FC, symSize: 0x28 }
  - { offsetInCU: 0xC474, offset: 0xC474, size: 0x8, addend: 0x0, symName: __ZNSt3__116__hash_node_baseIPNS_11__hash_nodeINS_17__hash_value_typeIiiEEPvEEE8__upcastB8ue170006Ev, symObjAddr: 0x14CC, symBinAddr: 0x100004624, symSize: 0x24 }
  - { offsetInCU: 0xC49A, offset: 0xC49A, size: 0x8, addend: 0x0, symName: __ZNSt3__116allocator_traitsINS_9allocatorINS_11__hash_nodeINS_17__hash_value_typeIiiEEPvEEEEE7destroyB8ue170006INS_4pairIKiiEEvvEEvRS7_PT_, symObjAddr: 0x14F0, symBinAddr: 0x100004648, symSize: 0x14 }
  - { offsetInCU: 0xC4D5, offset: 0xC4D5, size: 0x8, addend: 0x0, symName: __ZNSt3__122__hash_key_value_typesINS_17__hash_value_typeIiiEEE9__get_ptrB8ue170006ERS2_, symObjAddr: 0x1504, symBinAddr: 0x10000465C, symSize: 0x24 }
  - { offsetInCU: 0xC4F8, offset: 0xC4F8, size: 0x8, addend: 0x0, symName: __ZNSt3__116allocator_traitsINS_9allocatorINS_11__hash_nodeINS_17__hash_value_typeIiiEEPvEEEEE10deallocateB8ue170006ERS7_PS6_m, symObjAddr: 0x1528, symBinAddr: 0x100004680, symSize: 0x34 }
  - { offsetInCU: 0xC53A, offset: 0xC53A, size: 0x8, addend: 0x0, symName: __ZNSt3__117__compressed_pairINS_16__hash_node_baseIPNS_11__hash_nodeINS_17__hash_value_typeIiiEEPvEEEENS_9allocatorIS6_EEE6secondB8ue170006Ev, symObjAddr: 0x155C, symBinAddr: 0x1000046B4, symSize: 0x24 }
  - { offsetInCU: 0xC560, offset: 0xC560, size: 0x8, addend: 0x0, symName: __ZNSt3__122__compressed_pair_elemINS_9allocatorINS_11__hash_nodeINS_17__hash_value_typeIiiEEPvEEEELi1ELb1EE5__getB8ue170006Ev, symObjAddr: 0x1580, symBinAddr: 0x1000046D8, symSize: 0x14 }
  - { offsetInCU: 0xC586, offset: 0xC586, size: 0x8, addend: 0x0, symName: __ZNSt3__114pointer_traitsIPNS_16__hash_node_baseIPNS_11__hash_nodeINS_17__hash_value_typeIiiEEPvEEEEE10pointer_toB8ue170006ERS8_, symObjAddr: 0x1594, symBinAddr: 0x1000046EC, symSize: 0x14 }
  - { offsetInCU: 0xC5A9, offset: 0xC5A9, size: 0x8, addend: 0x0, symName: __ZNSt3__117__hash_value_typeIiiE11__get_valueB8ue170006Ev, symObjAddr: 0x15A8, symBinAddr: 0x100004700, symSize: 0x14 }
  - { offsetInCU: 0xC5CF, offset: 0xC5CF, size: 0x8, addend: 0x0, symName: __ZNSt3__19allocatorINS_11__hash_nodeINS_17__hash_value_typeIiiEEPvEEE10deallocateB8ue170006EPS5_m, symObjAddr: 0x15BC, symBinAddr: 0x100004714, symSize: 0x74 }
  - { offsetInCU: 0xC611, offset: 0xC611, size: 0x8, addend: 0x0, symName: __ZNSt3__122__compressed_pair_elemINS_16__hash_node_baseIPNS_11__hash_nodeINS_17__hash_value_typeIiiEEPvEEEELi0ELb0EE5__getB8ue170006Ev, symObjAddr: 0x1630, symBinAddr: 0x100004788, symSize: 0x14 }
  - { offsetInCU: 0xC637, offset: 0xC637, size: 0x8, addend: 0x0, symName: __ZNSt3__113unordered_mapIiiNS_4hashIiEENS_8equal_toIiEENS_9allocatorINS_4pairIKiiEEEEE25__construct_node_with_keyERS7_, symObjAddr: 0x1644, symBinAddr: 0x10000479C, symSize: 0x144 }
  - { offsetInCU: 0xC68D, offset: 0xC68D, size: 0x8, addend: 0x0, symName: __ZNSt3__112__hash_tableINS_17__hash_value_typeIiiEENS_22__unordered_map_hasherIiS2_NS_4hashIiEENS_8equal_toIiEELb1EEENS_21__unordered_map_equalIiS2_S7_S5_Lb1EEENS_9allocatorIS2_EEE20__node_insert_uniqueEPNS_11__hash_nodeIS2_PvEE, symObjAddr: 0x1788, symBinAddr: 0x1000048E0, symSize: 0xC4 }
  - { offsetInCU: 0xC6E2, offset: 0xC6E2, size: 0x8, addend: 0x0, symName: __ZNKSt3__110unique_ptrINS_11__hash_nodeINS_17__hash_value_typeIiiEEPvEENS_26__hash_map_node_destructorINS_9allocatorIS5_EEEEE3getB8ue170006Ev, symObjAddr: 0x184C, symBinAddr: 0x1000049A4, symSize: 0x28 }
  - { offsetInCU: 0xC708, offset: 0xC708, size: 0x8, addend: 0x0, symName: __ZNSt3__14pairINS_19__hash_map_iteratorINS_15__hash_iteratorIPNS_11__hash_nodeINS_17__hash_value_typeIiiEEPvEEEEEEbEC1B8ue170006IS9_bEERKNS0_IT_T0_EE, symObjAddr: 0x1874, symBinAddr: 0x1000049CC, symSize: 0x34 }
  - { offsetInCU: 0xC751, offset: 0xC751, size: 0x8, addend: 0x0, symName: __ZNSt3__110unique_ptrINS_11__hash_nodeINS_17__hash_value_typeIiiEEPvEENS_26__hash_map_node_destructorINS_9allocatorIS5_EEEEE7releaseB8ue170006Ev, symObjAddr: 0x18A8, symBinAddr: 0x100004A00, symSize: 0x44 }
  - { offsetInCU: 0xC786, offset: 0xC786, size: 0x8, addend: 0x0, symName: __ZNSt3__110unique_ptrINS_11__hash_nodeINS_17__hash_value_typeIiiEEPvEENS_26__hash_map_node_destructorINS_9allocatorIS5_EEEEED1B8ue170006Ev, symObjAddr: 0x18EC, symBinAddr: 0x100004A44, symSize: 0x2C }
  - { offsetInCU: 0xC7AF, offset: 0xC7AF, size: 0x8, addend: 0x0, symName: __ZNSt3__116allocator_traitsINS_9allocatorINS_11__hash_nodeINS_17__hash_value_typeIiiEEPvEEEEE8allocateB8ue170006ERS7_m, symObjAddr: 0x1918, symBinAddr: 0x100004A70, symSize: 0x2C }
  - { offsetInCU: 0xC7E2, offset: 0xC7E2, size: 0x8, addend: 0x0, symName: __ZNSt3__126__hash_map_node_destructorINS_9allocatorINS_11__hash_nodeINS_17__hash_value_typeIiiEEPvEEEEEC1B8ue170006ERS7_, symObjAddr: 0x1944, symBinAddr: 0x100004A9C, symSize: 0x34 }
  - { offsetInCU: 0xC81F, offset: 0xC81F, size: 0x8, addend: 0x0, symName: __ZNSt3__110unique_ptrINS_11__hash_nodeINS_17__hash_value_typeIiiEEPvEENS_26__hash_map_node_destructorINS_9allocatorIS5_EEEEEC1B8ue170006ILb1EvEEPS5_NS_16__dependent_typeINS_27__unique_ptr_deleter_sfinaeIS9_EEXT_EE20__good_rval_ref_typeE, symObjAddr: 0x1978, symBinAddr: 0x100004AD0, symSize: 0x3C }
  - { offsetInCU: 0xC874, offset: 0xC874, size: 0x8, addend: 0x0, symName: __ZNSt3__116allocator_traitsINS_9allocatorINS_11__hash_nodeINS_17__hash_value_typeIiiEEPvEEEEE9constructB8ue170006IKiJRSA_EvEEvRS7_PT_DpOT0_, symObjAddr: 0x19B4, symBinAddr: 0x100004B0C, symSize: 0x34 }
  - { offsetInCU: 0xC8CB, offset: 0xC8CB, size: 0x8, addend: 0x0, symName: __ZNKSt3__110unique_ptrINS_11__hash_nodeINS_17__hash_value_typeIiiEEPvEENS_26__hash_map_node_destructorINS_9allocatorIS5_EEEEEptB8ue170006Ev, symObjAddr: 0x19E8, symBinAddr: 0x100004B40, symSize: 0x28 }
  - { offsetInCU: 0xC8F1, offset: 0xC8F1, size: 0x8, addend: 0x0, symName: __ZNSt3__110unique_ptrINS_11__hash_nodeINS_17__hash_value_typeIiiEEPvEENS_26__hash_map_node_destructorINS_9allocatorIS5_EEEEE11get_deleterB8ue170006Ev, symObjAddr: 0x1A10, symBinAddr: 0x100004B68, symSize: 0x24 }
  - { offsetInCU: 0xC917, offset: 0xC917, size: 0x8, addend: 0x0, symName: __ZNSt3__116allocator_traitsINS_9allocatorINS_11__hash_nodeINS_17__hash_value_typeIiiEEPvEEEEE9constructB8ue170006IiJEvEEvRS7_PT_DpOT0_, symObjAddr: 0x1A34, symBinAddr: 0x100004B8C, symSize: 0x2C }
  - { offsetInCU: 0xC959, offset: 0xC959, size: 0x8, addend: 0x0, symName: __ZNSt3__19allocatorINS_11__hash_nodeINS_17__hash_value_typeIiiEEPvEEE8allocateB8ue170006Em, symObjAddr: 0x1A60, symBinAddr: 0x100004BB8, symSize: 0x8C }
  - { offsetInCU: 0xC997, offset: 0xC997, size: 0x8, addend: 0x0, symName: __ZNSt3__116allocator_traitsINS_9allocatorINS_11__hash_nodeINS_17__hash_value_typeIiiEEPvEEEEE8max_sizeB8ue170006IS7_vEEmRKS7_, symObjAddr: 0x1AEC, symBinAddr: 0x100004C44, symSize: 0x24 }
  - { offsetInCU: 0xC9C5, offset: 0xC9C5, size: 0x8, addend: 0x0, symName: __ZNKSt3__19allocatorINS_11__hash_nodeINS_17__hash_value_typeIiiEEPvEEE8max_sizeB8ue170006Ev, symObjAddr: 0x1B6C, symBinAddr: 0x100004CC4, symSize: 0x18 }
  - { offsetInCU: 0xC9EB, offset: 0xC9EB, size: 0x8, addend: 0x0, symName: __ZNSt3__126__hash_map_node_destructorINS_9allocatorINS_11__hash_nodeINS_17__hash_value_typeIiiEEPvEEEEEC2B8ue170006ERS7_, symObjAddr: 0x1BA8, symBinAddr: 0x100004D00, symSize: 0x28 }
  - { offsetInCU: 0xCA24, offset: 0xCA24, size: 0x8, addend: 0x0, symName: __ZNSt3__110unique_ptrINS_11__hash_nodeINS_17__hash_value_typeIiiEEPvEENS_26__hash_map_node_destructorINS_9allocatorIS5_EEEEEC2B8ue170006ILb1EvEEPS5_NS_16__dependent_typeINS_27__unique_ptr_deleter_sfinaeIS9_EEXT_EE20__good_rval_ref_typeE, symObjAddr: 0x1BD0, symBinAddr: 0x100004D28, symSize: 0x5C }
  - { offsetInCU: 0xCA74, offset: 0xCA74, size: 0x8, addend: 0x0, symName: __ZNSt3__117__compressed_pairIPNS_11__hash_nodeINS_17__hash_value_typeIiiEEPvEENS_26__hash_map_node_destructorINS_9allocatorIS5_EEEEEC1B8ue170006IRS6_SA_EEOT_OT0_, symObjAddr: 0x1C2C, symBinAddr: 0x100004D84, symSize: 0x3C }
  - { offsetInCU: 0xCACB, offset: 0xCACB, size: 0x8, addend: 0x0, symName: __ZNSt3__117__compressed_pairIPNS_11__hash_nodeINS_17__hash_value_typeIiiEEPvEENS_26__hash_map_node_destructorINS_9allocatorIS5_EEEEEC2B8ue170006IRS6_SA_EEOT_OT0_, symObjAddr: 0x1C68, symBinAddr: 0x100004DC0, symSize: 0x48 }
  - { offsetInCU: 0xCB22, offset: 0xCB22, size: 0x8, addend: 0x0, symName: __ZNSt3__122__compressed_pair_elemIPNS_11__hash_nodeINS_17__hash_value_typeIiiEEPvEELi0ELb0EEC2B8ue170006IRS6_vEEOT_, symObjAddr: 0x1CB0, symBinAddr: 0x100004E08, symSize: 0x24 }
  - { offsetInCU: 0xCB64, offset: 0xCB64, size: 0x8, addend: 0x0, symName: __ZNSt3__122__compressed_pair_elemINS_26__hash_map_node_destructorINS_9allocatorINS_11__hash_nodeINS_17__hash_value_typeIiiEEPvEEEEEELi1ELb0EEC2B8ue170006IS9_vEEOT_, symObjAddr: 0x1CD4, symBinAddr: 0x100004E2C, symSize: 0x24 }
  - { offsetInCU: 0xCBA6, offset: 0xCBA6, size: 0x8, addend: 0x0, symName: __ZNSt3__19allocatorINS_11__hash_nodeINS_17__hash_value_typeIiiEEPvEEE9constructB8ue170006IKiJRS8_EEEvPT_DpOT0_, symObjAddr: 0x1CF8, symBinAddr: 0x100004E50, symSize: 0x28 }
  - { offsetInCU: 0xCBFC, offset: 0xCBFC, size: 0x8, addend: 0x0, symName: __ZNKSt3__117__compressed_pairIPNS_11__hash_nodeINS_17__hash_value_typeIiiEEPvEENS_26__hash_map_node_destructorINS_9allocatorIS5_EEEEE5firstB8ue170006Ev, symObjAddr: 0x1D20, symBinAddr: 0x100004E78, symSize: 0x24 }
  - { offsetInCU: 0xCC22, offset: 0xCC22, size: 0x8, addend: 0x0, symName: __ZNKSt3__122__compressed_pair_elemIPNS_11__hash_nodeINS_17__hash_value_typeIiiEEPvEELi0ELb0EE5__getB8ue170006Ev, symObjAddr: 0x1D44, symBinAddr: 0x100004E9C, symSize: 0x14 }
  - { offsetInCU: 0xCC48, offset: 0xCC48, size: 0x8, addend: 0x0, symName: __ZNSt3__117__compressed_pairIPNS_11__hash_nodeINS_17__hash_value_typeIiiEEPvEENS_26__hash_map_node_destructorINS_9allocatorIS5_EEEEE6secondB8ue170006Ev, symObjAddr: 0x1D58, symBinAddr: 0x100004EB0, symSize: 0x28 }
  - { offsetInCU: 0xCC6E, offset: 0xCC6E, size: 0x8, addend: 0x0, symName: __ZNSt3__122__compressed_pair_elemINS_26__hash_map_node_destructorINS_9allocatorINS_11__hash_nodeINS_17__hash_value_typeIiiEEPvEEEEEELi1ELb0EE5__getB8ue170006Ev, symObjAddr: 0x1D80, symBinAddr: 0x100004ED8, symSize: 0x14 }
  - { offsetInCU: 0xCC94, offset: 0xCC94, size: 0x8, addend: 0x0, symName: __ZNSt3__19allocatorINS_11__hash_nodeINS_17__hash_value_typeIiiEEPvEEE9constructB8ue170006IiJEEEvPT_DpOT0_, symObjAddr: 0x1D94, symBinAddr: 0x100004EEC, symSize: 0x1C }
  - { offsetInCU: 0xCCD6, offset: 0xCCD6, size: 0x8, addend: 0x0, symName: __ZNSt3__112__hash_tableINS_17__hash_value_typeIiiEENS_22__unordered_map_hasherIiS2_NS_4hashIiEENS_8equal_toIiEELb1EEENS_21__unordered_map_equalIiS2_S7_S5_Lb1EEENS_9allocatorIS2_EEE13hash_functionB8ue170006Ev, symObjAddr: 0x1DB0, symBinAddr: 0x100004F08, symSize: 0x28 }
  - { offsetInCU: 0xCCFC, offset: 0xCCFC, size: 0x8, addend: 0x0, symName: __ZNKSt3__122__unordered_map_hasherIiNS_17__hash_value_typeIiiEENS_4hashIiEENS_8equal_toIiEELb1EEclB8ue170006ERKS2_, symObjAddr: 0x1DD8, symBinAddr: 0x100004F30, symSize: 0x40 }
  - { offsetInCU: 0xCD31, offset: 0xCD31, size: 0x8, addend: 0x0, symName: __ZNSt3__112__hash_tableINS_17__hash_value_typeIiiEENS_22__unordered_map_hasherIiS2_NS_4hashIiEENS_8equal_toIiEELb1EEENS_21__unordered_map_equalIiS2_S7_S5_Lb1EEENS_9allocatorIS2_EEE28__node_insert_unique_prepareB8ue170006EmRS2_, symObjAddr: 0x1E18, symBinAddr: 0x100004F70, symSize: 0x290 }
  - { offsetInCU: 0xCDB2, offset: 0xCDB2, size: 0x8, addend: 0x0, symName: __ZNKSt3__116__hash_node_baseIPNS_11__hash_nodeINS_17__hash_value_typeIiiEEPvEEE6__hashB8ue170006Ev, symObjAddr: 0x20A8, symBinAddr: 0x100005200, symSize: 0x18 }
  - { offsetInCU: 0xCDD8, offset: 0xCDD8, size: 0x8, addend: 0x0, symName: __ZNSt3__112__hash_tableINS_17__hash_value_typeIiiEENS_22__unordered_map_hasherIiS2_NS_4hashIiEENS_8equal_toIiEELb1EEENS_21__unordered_map_equalIiS2_S7_S5_Lb1EEENS_9allocatorIS2_EEE28__node_insert_unique_performB8ue170006EPNS_11__hash_nodeIS2_PvEE, symObjAddr: 0x20C0, symBinAddr: 0x100005218, symSize: 0x154 }
  - { offsetInCU: 0xCE3C, offset: 0xCE3C, size: 0x8, addend: 0x0, symName: __ZNSt3__116__hash_node_baseIPNS_11__hash_nodeINS_17__hash_value_typeIiiEEPvEEE5__ptrB8ue170006Ev, symObjAddr: 0x2214, symBinAddr: 0x10000536C, symSize: 0x24 }
  - { offsetInCU: 0xCE62, offset: 0xCE62, size: 0x8, addend: 0x0, symName: __ZNSt3__115__hash_iteratorIPNS_11__hash_nodeINS_17__hash_value_typeIiiEEPvEEEC1B8ue170006EPNS_16__hash_node_baseIS6_EE, symObjAddr: 0x2238, symBinAddr: 0x100005390, symSize: 0x34 }
  - { offsetInCU: 0xCE9A, offset: 0xCE9A, size: 0x8, addend: 0x0, symName: __ZNSt3__14pairINS_15__hash_iteratorIPNS_11__hash_nodeINS_17__hash_value_typeIiiEEPvEEEEbEC1B8ue170006ERKS8_RKb, symObjAddr: 0x226C, symBinAddr: 0x1000053C4, symSize: 0x3C }
  - { offsetInCU: 0xCEDF, offset: 0xCEDF, size: 0x8, addend: 0x0, symName: __ZNSt3__117__compressed_pairImNS_22__unordered_map_hasherIiNS_17__hash_value_typeIiiEENS_4hashIiEENS_8equal_toIiEELb1EEEE6secondB8ue170006Ev, symObjAddr: 0x22A8, symBinAddr: 0x100005400, symSize: 0x24 }
  - { offsetInCU: 0xCF05, offset: 0xCF05, size: 0x8, addend: 0x0, symName: __ZNSt3__122__compressed_pair_elemINS_22__unordered_map_hasherIiNS_17__hash_value_typeIiiEENS_4hashIiEENS_8equal_toIiEELb1EEELi1ELb1EE5__getB8ue170006Ev, symObjAddr: 0x22CC, symBinAddr: 0x100005424, symSize: 0x14 }
  - { offsetInCU: 0xCF2B, offset: 0xCF2B, size: 0x8, addend: 0x0, symName: __ZNKSt3__14hashIiEclB8ue170006Ei, symObjAddr: 0x22E0, symBinAddr: 0x100005438, symSize: 0x18 }
  - { offsetInCU: 0xCF60, offset: 0xCF60, size: 0x8, addend: 0x0, symName: __ZNKSt3__117__hash_value_typeIiiE11__get_valueB8ue170006Ev, symObjAddr: 0x22F8, symBinAddr: 0x100005450, symSize: 0x14 }
  - { offsetInCU: 0xCF86, offset: 0xCF86, size: 0x8, addend: 0x0, symName: __ZNKSt3__112__hash_tableINS_17__hash_value_typeIiiEENS_22__unordered_map_hasherIiS2_NS_4hashIiEENS_8equal_toIiEELb1EEENS_21__unordered_map_equalIiS2_S7_S5_Lb1EEENS_9allocatorIS2_EEE12bucket_countB8ue170006Ev, symObjAddr: 0x230C, symBinAddr: 0x100005464, symSize: 0x28 }
  - { offsetInCU: 0xCFAC, offset: 0xCFAC, size: 0x8, addend: 0x0, symName: __ZNKSt3__110unique_ptrIA_PNS_16__hash_node_baseIPNS_11__hash_nodeINS_17__hash_value_typeIiiEEPvEEEENS_25__bucket_list_deallocatorINS_9allocatorIS9_EEEEEixB8ue170006Em, symObjAddr: 0x23CC, symBinAddr: 0x100005524, symSize: 0x34 }
  - { offsetInCU: 0xCFE1, offset: 0xCFE1, size: 0x8, addend: 0x0, symName: __ZNSt3__112__hash_tableINS_17__hash_value_typeIiiEENS_22__unordered_map_hasherIiS2_NS_4hashIiEENS_8equal_toIiEELb1EEENS_21__unordered_map_equalIiS2_S7_S5_Lb1EEENS_9allocatorIS2_EEE6key_eqB8ue170006Ev, symObjAddr: 0x2400, symBinAddr: 0x100005558, symSize: 0x28 }
  - { offsetInCU: 0xD007, offset: 0xD007, size: 0x8, addend: 0x0, symName: __ZNKSt3__121__unordered_map_equalIiNS_17__hash_value_typeIiiEENS_8equal_toIiEENS_4hashIiEELb1EEclB8ue170006ERKS2_S9_, symObjAddr: 0x2428, symBinAddr: 0x100005580, symSize: 0x54 }
  - { offsetInCU: 0xD04B, offset: 0xD04B, size: 0x8, addend: 0x0, symName: __ZNSt3__112__hash_tableINS_17__hash_value_typeIiiEENS_22__unordered_map_hasherIiS2_NS_4hashIiEENS_8equal_toIiEELb1EEENS_21__unordered_map_equalIiS2_S7_S5_Lb1EEENS_9allocatorIS2_EEE4sizeB8ue170006Ev, symObjAddr: 0x247C, symBinAddr: 0x1000055D4, symSize: 0x28 }
  - { offsetInCU: 0xD071, offset: 0xD071, size: 0x8, addend: 0x0, symName: __ZNSt3__112__hash_tableINS_17__hash_value_typeIiiEENS_22__unordered_map_hasherIiS2_NS_4hashIiEENS_8equal_toIiEELb1EEENS_21__unordered_map_equalIiS2_S7_S5_Lb1EEENS_9allocatorIS2_EEE15max_load_factorB8ue170006Ev, symObjAddr: 0x24A4, symBinAddr: 0x1000055FC, symSize: 0x28 }
  - { offsetInCU: 0xD097, offset: 0xD097, size: 0x8, addend: 0x0, symName: __ZNSt3__112__hash_tableINS_17__hash_value_typeIiiEENS_22__unordered_map_hasherIiS2_NS_4hashIiEENS_8equal_toIiEELb1EEENS_21__unordered_map_equalIiS2_S7_S5_Lb1EEENS_9allocatorIS2_EEE15__rehash_uniqueB8ue170006Em, symObjAddr: 0x24CC, symBinAddr: 0x100005624, symSize: 0x2C }
  - { offsetInCU: 0xD0CB, offset: 0xD0CB, size: 0x8, addend: 0x0, symName: __Z4ceilB8ue170006f, symObjAddr: 0x2574, symBinAddr: 0x1000056CC, symSize: 0x18 }
  - { offsetInCU: 0xD0FA, offset: 0xD0FA, size: 0x8, addend: 0x0, symName: __ZNKSt3__110unique_ptrIA_PNS_16__hash_node_baseIPNS_11__hash_nodeINS_17__hash_value_typeIiiEEPvEEEENS_25__bucket_list_deallocatorINS_9allocatorIS9_EEEEE11get_deleterB8ue170006Ev, symObjAddr: 0x258C, symBinAddr: 0x1000056E4, symSize: 0x24 }
  - { offsetInCU: 0xD120, offset: 0xD120, size: 0x8, addend: 0x0, symName: __ZNKSt3__125__bucket_list_deallocatorINS_9allocatorIPNS_16__hash_node_baseIPNS_11__hash_nodeINS_17__hash_value_typeIiiEEPvEEEEEEE4sizeB8ue170006Ev, symObjAddr: 0x25B0, symBinAddr: 0x100005708, symSize: 0x28 }
  - { offsetInCU: 0xD146, offset: 0xD146, size: 0x8, addend: 0x0, symName: __ZNKSt3__117__compressed_pairIPPNS_16__hash_node_baseIPNS_11__hash_nodeINS_17__hash_value_typeIiiEEPvEEEENS_25__bucket_list_deallocatorINS_9allocatorIS9_EEEEE6secondB8ue170006Ev, symObjAddr: 0x25D8, symBinAddr: 0x100005730, symSize: 0x28 }
  - { offsetInCU: 0xD16C, offset: 0xD16C, size: 0x8, addend: 0x0, symName: __ZNKSt3__122__compressed_pair_elemINS_25__bucket_list_deallocatorINS_9allocatorIPNS_16__hash_node_baseIPNS_11__hash_nodeINS_17__hash_value_typeIiiEEPvEEEEEEEELi1ELb0EE5__getB8ue170006Ev, symObjAddr: 0x2600, symBinAddr: 0x100005758, symSize: 0x14 }
  - { offsetInCU: 0xD192, offset: 0xD192, size: 0x8, addend: 0x0, symName: __ZNKSt3__117__compressed_pairImNS_9allocatorIPNS_16__hash_node_baseIPNS_11__hash_nodeINS_17__hash_value_typeIiiEEPvEEEEEEE5firstB8ue170006Ev, symObjAddr: 0x2614, symBinAddr: 0x10000576C, symSize: 0x24 }
  - { offsetInCU: 0xD1B8, offset: 0xD1B8, size: 0x8, addend: 0x0, symName: __ZNKSt3__122__compressed_pair_elemImLi0ELb0EE5__getB8ue170006Ev, symObjAddr: 0x2638, symBinAddr: 0x100005790, symSize: 0x14 }
  - { offsetInCU: 0xD1DE, offset: 0xD1DE, size: 0x8, addend: 0x0, symName: __ZNKSt3__117__compressed_pairIPPNS_16__hash_node_baseIPNS_11__hash_nodeINS_17__hash_value_typeIiiEEPvEEEENS_25__bucket_list_deallocatorINS_9allocatorIS9_EEEEE5firstB8ue170006Ev, symObjAddr: 0x264C, symBinAddr: 0x1000057A4, symSize: 0x24 }
  - { offsetInCU: 0xD204, offset: 0xD204, size: 0x8, addend: 0x0, symName: __ZNKSt3__122__compressed_pair_elemIPPNS_16__hash_node_baseIPNS_11__hash_nodeINS_17__hash_value_typeIiiEEPvEEEELi0ELb0EE5__getB8ue170006Ev, symObjAddr: 0x2670, symBinAddr: 0x1000057C8, symSize: 0x14 }
  - { offsetInCU: 0xD22A, offset: 0xD22A, size: 0x8, addend: 0x0, symName: __ZNSt3__117__compressed_pairIfNS_21__unordered_map_equalIiNS_17__hash_value_typeIiiEENS_8equal_toIiEENS_4hashIiEELb1EEEE6secondB8ue170006Ev, symObjAddr: 0x2684, symBinAddr: 0x1000057DC, symSize: 0x24 }
  - { offsetInCU: 0xD250, offset: 0xD250, size: 0x8, addend: 0x0, symName: __ZNSt3__122__compressed_pair_elemINS_21__unordered_map_equalIiNS_17__hash_value_typeIiiEENS_8equal_toIiEENS_4hashIiEELb1EEELi1ELb1EE5__getB8ue170006Ev, symObjAddr: 0x26A8, symBinAddr: 0x100005800, symSize: 0x14 }
  - { offsetInCU: 0xD276, offset: 0xD276, size: 0x8, addend: 0x0, symName: __ZNKSt3__18equal_toIiEclB8ue170006ERKiS3_, symObjAddr: 0x26BC, symBinAddr: 0x100005814, symSize: 0x34 }
  - { offsetInCU: 0xD2BA, offset: 0xD2BA, size: 0x8, addend: 0x0, symName: __ZNSt3__117__compressed_pairImNS_22__unordered_map_hasherIiNS_17__hash_value_typeIiiEENS_4hashIiEENS_8equal_toIiEELb1EEEE5firstB8ue170006Ev, symObjAddr: 0x26F0, symBinAddr: 0x100005848, symSize: 0x24 }
  - { offsetInCU: 0xD2E0, offset: 0xD2E0, size: 0x8, addend: 0x0, symName: __ZNSt3__117__compressed_pairIfNS_21__unordered_map_equalIiNS_17__hash_value_typeIiiEENS_8equal_toIiEENS_4hashIiEELb1EEEE5firstB8ue170006Ev, symObjAddr: 0x2714, symBinAddr: 0x10000586C, symSize: 0x24 }
  - { offsetInCU: 0xD306, offset: 0xD306, size: 0x8, addend: 0x0, symName: __ZNSt3__122__compressed_pair_elemIfLi0ELb0EE5__getB8ue170006Ev, symObjAddr: 0x2738, symBinAddr: 0x100005890, symSize: 0x14 }
  - { offsetInCU: 0xD32C, offset: 0xD32C, size: 0x8, addend: 0x0, symName: __ZNSt3__112__hash_tableINS_17__hash_value_typeIiiEENS_22__unordered_map_hasherIiS2_NS_4hashIiEENS_8equal_toIiEELb1EEENS_21__unordered_map_equalIiS2_S7_S5_Lb1EEENS_9allocatorIS2_EEE8__rehashILb1EEEvm, symObjAddr: 0x274C, symBinAddr: 0x1000058A4, symSize: 0x1A8 }
  - { offsetInCU: 0xD37C, offset: 0xD37C, size: 0x8, addend: 0x0, symName: __ZNSt3__112__hash_tableINS_17__hash_value_typeIiiEENS_22__unordered_map_hasherIiS2_NS_4hashIiEENS_8equal_toIiEELb1EEENS_21__unordered_map_equalIiS2_S7_S5_Lb1EEENS_9allocatorIS2_EEE11__do_rehashILb1EEEvm, symObjAddr: 0x28F4, symBinAddr: 0x100005A4C, symSize: 0x288 }
  - { offsetInCU: 0xD45F, offset: 0xD45F, size: 0x8, addend: 0x0, symName: __ZNSt3__110unique_ptrIA_PNS_16__hash_node_baseIPNS_11__hash_nodeINS_17__hash_value_typeIiiEEPvEEEENS_25__bucket_list_deallocatorINS_9allocatorIS9_EEEEE11get_deleterB8ue170006Ev, symObjAddr: 0x2BE8, symBinAddr: 0x100005D40, symSize: 0x24 }
  - { offsetInCU: 0xD485, offset: 0xD485, size: 0x8, addend: 0x0, symName: __ZNSt3__110unique_ptrIA_PNS_16__hash_node_baseIPNS_11__hash_nodeINS_17__hash_value_typeIiiEEPvEEEENS_25__bucket_list_deallocatorINS_9allocatorIS9_EEEEE5resetB8ue170006IPS9_EENS_9enable_ifIXsr28_CheckArrayPointerConversionIT_EE5valueEvE4typeESJ_, symObjAddr: 0x2C0C, symBinAddr: 0x100005D64, symSize: 0x78 }
  - { offsetInCU: 0xD4D2, offset: 0xD4D2, size: 0x8, addend: 0x0, symName: __ZNSt3__116allocator_traitsINS_9allocatorIPNS_16__hash_node_baseIPNS_11__hash_nodeINS_17__hash_value_typeIiiEEPvEEEEEEE8allocateB8ue170006ERSB_m, symObjAddr: 0x2C84, symBinAddr: 0x100005DDC, symSize: 0x2C }
  - { offsetInCU: 0xD505, offset: 0xD505, size: 0x8, addend: 0x0, symName: __ZNSt3__19allocatorIPNS_16__hash_node_baseIPNS_11__hash_nodeINS_17__hash_value_typeIiiEEPvEEEEE8allocateB8ue170006Em, symObjAddr: 0x2CB0, symBinAddr: 0x100005E08, symSize: 0x84 }
  - { offsetInCU: 0xD543, offset: 0xD543, size: 0x8, addend: 0x0, symName: __ZNSt3__116allocator_traitsINS_9allocatorIPNS_16__hash_node_baseIPNS_11__hash_nodeINS_17__hash_value_typeIiiEEPvEEEEEEE8max_sizeB8ue170006ISB_vEEmRKSB_, symObjAddr: 0x2D34, symBinAddr: 0x100005E8C, symSize: 0x24 }
  - { offsetInCU: 0xD571, offset: 0xD571, size: 0x8, addend: 0x0, symName: __ZNKSt3__19allocatorIPNS_16__hash_node_baseIPNS_11__hash_nodeINS_17__hash_value_typeIiiEEPvEEEEE8max_sizeB8ue170006Ev, symObjAddr: 0x2D58, symBinAddr: 0x100005EB0, symSize: 0x14 }
  - { offsetInCU: 0xD5A1, offset: 0xD5A1, size: 0x8, addend: 0x0, symName: __ZNKSt3__16__lessIvvEclB8ue170006ImmEEbRKT_RKT0_, symObjAddr: 0x2DDC, symBinAddr: 0x100005F34, symSize: 0x34 }
  - { offsetInCU: 0xD5F5, offset: 0xD5F5, size: 0x8, addend: 0x0, symName: __ZNSt3__115__hash_iteratorIPNS_11__hash_nodeINS_17__hash_value_typeIiiEEPvEEEC2B8ue170006EPNS_16__hash_node_baseIS6_EE, symObjAddr: 0x2E10, symBinAddr: 0x100005F68, symSize: 0x20 }
  - { offsetInCU: 0xD62E, offset: 0xD62E, size: 0x8, addend: 0x0, symName: __ZNSt3__14pairINS_15__hash_iteratorIPNS_11__hash_nodeINS_17__hash_value_typeIiiEEPvEEEEbEC2B8ue170006ERKS8_RKb, symObjAddr: 0x2E30, symBinAddr: 0x100005F88, symSize: 0x38 }
  - { offsetInCU: 0xD674, offset: 0xD674, size: 0x8, addend: 0x0, symName: __ZNSt3__14pairINS_19__hash_map_iteratorINS_15__hash_iteratorIPNS_11__hash_nodeINS_17__hash_value_typeIiiEEPvEEEEEEbEC2B8ue170006IS9_bEERKNS0_IT_T0_EE, symObjAddr: 0x2E68, symBinAddr: 0x100005FC0, symSize: 0x50 }
  - { offsetInCU: 0xD6BD, offset: 0xD6BD, size: 0x8, addend: 0x0, symName: __ZNSt3__119__hash_map_iteratorINS_15__hash_iteratorIPNS_11__hash_nodeINS_17__hash_value_typeIiiEEPvEEEEEC1B8ue170006ES8_, symObjAddr: 0x2EB8, symBinAddr: 0x100006010, symSize: 0x34 }
  - { offsetInCU: 0xD6F5, offset: 0xD6F5, size: 0x8, addend: 0x0, symName: __ZNSt3__119__hash_map_iteratorINS_15__hash_iteratorIPNS_11__hash_nodeINS_17__hash_value_typeIiiEEPvEEEEEC2B8ue170006ES8_, symObjAddr: 0x2EEC, symBinAddr: 0x100006044, symSize: 0x20 }
  - { offsetInCU: 0xD72E, offset: 0xD72E, size: 0x8, addend: 0x0, symName: __ZNSt3__117__compressed_pairIPNS_11__hash_nodeINS_17__hash_value_typeIiiEEPvEENS_26__hash_map_node_destructorINS_9allocatorIS5_EEEEE5firstB8ue170006Ev, symObjAddr: 0x2F0C, symBinAddr: 0x100006064, symSize: 0x24 }
  - { offsetInCU: 0xD754, offset: 0xD754, size: 0x8, addend: 0x0, symName: __ZNSt3__122__compressed_pair_elemIPNS_11__hash_nodeINS_17__hash_value_typeIiiEEPvEELi0ELb0EE5__getB8ue170006Ev, symObjAddr: 0x2F30, symBinAddr: 0x100006088, symSize: 0x14 }
  - { offsetInCU: 0xD77A, offset: 0xD77A, size: 0x8, addend: 0x0, symName: __ZNSt3__110unique_ptrINS_11__hash_nodeINS_17__hash_value_typeIiiEEPvEENS_26__hash_map_node_destructorINS_9allocatorIS5_EEEEED2B8ue170006Ev, symObjAddr: 0x2F44, symBinAddr: 0x10000609C, symSize: 0x30 }
  - { offsetInCU: 0xD7A3, offset: 0xD7A3, size: 0x8, addend: 0x0, symName: __ZNSt3__110unique_ptrINS_11__hash_nodeINS_17__hash_value_typeIiiEEPvEENS_26__hash_map_node_destructorINS_9allocatorIS5_EEEEE5resetB8ue170006EPS5_, symObjAddr: 0x2F74, symBinAddr: 0x1000060CC, symSize: 0x78 }
  - { offsetInCU: 0xD7E7, offset: 0xD7E7, size: 0x8, addend: 0x0, symName: __ZNSt3__126__hash_map_node_destructorINS_9allocatorINS_11__hash_nodeINS_17__hash_value_typeIiiEEPvEEEEEclB8ue170006EPS6_, symObjAddr: 0x2FEC, symBinAddr: 0x100006144, symSize: 0xE4 }
  - { offsetInCU: 0xD81C, offset: 0xD81C, size: 0x8, addend: 0x0, symName: __ZNSt3__116allocator_traitsINS_9allocatorINS_11__hash_nodeINS_17__hash_value_typeIiiEEPvEEEEE7destroyB8ue170006IivvEEvRS7_PT_, symObjAddr: 0x30D0, symBinAddr: 0x100006228, symSize: 0x14 }
  - { offsetInCU: 0xD857, offset: 0xD857, size: 0x8, addend: 0x0, symName: __ZNSt3__116allocator_traitsINS_9allocatorINS_11__hash_nodeINS_17__hash_value_typeIiiEEPvEEEEE7destroyB8ue170006IKivvEEvRS7_PT_, symObjAddr: 0x30E4, symBinAddr: 0x10000623C, symSize: 0x14 }
  - { offsetInCU: 0xD892, offset: 0xD892, size: 0x8, addend: 0x0, symName: __ZNSt3__119__hash_map_iteratorINS_15__hash_iteratorIPNS_11__hash_nodeINS_17__hash_value_typeIiiEEPvEEEEEC2B8ue170006Ev, symObjAddr: 0x30F8, symBinAddr: 0x100006250, symSize: 0x2C }
  - { offsetInCU: 0xD8BB, offset: 0xD8BB, size: 0x8, addend: 0x0, symName: __ZNSt3__115__hash_iteratorIPNS_11__hash_nodeINS_17__hash_value_typeIiiEEPvEEEC1B8ue170006Ev, symObjAddr: 0x3124, symBinAddr: 0x10000627C, symSize: 0x2C }
  - { offsetInCU: 0xD8E4, offset: 0xD8E4, size: 0x8, addend: 0x0, symName: __ZNSt3__115__hash_iteratorIPNS_11__hash_nodeINS_17__hash_value_typeIiiEEPvEEEC2B8ue170006Ev, symObjAddr: 0x3150, symBinAddr: 0x1000062A8, symSize: 0x18 }
  - { offsetInCU: 0xD90E, offset: 0xD90E, size: 0x8, addend: 0x0, symName: __ZNSt3__112__hash_tableINS_17__hash_value_typeIiiEENS_22__unordered_map_hasherIiS2_NS_4hashIiEENS_8equal_toIiEELb1EEENS_21__unordered_map_equalIiS2_S7_S5_Lb1EEENS_9allocatorIS2_EEE5beginEv, symObjAddr: 0x3168, symBinAddr: 0x1000062C0, symSize: 0x38 }
  - { offsetInCU: 0xD936, offset: 0xD936, size: 0x8, addend: 0x0, symName: __ZNSt3__112__hash_tableINS_17__hash_value_typeIiiEENS_22__unordered_map_hasherIiS2_NS_4hashIiEENS_8equal_toIiEELb1EEENS_21__unordered_map_equalIiS2_S7_S5_Lb1EEENS_9allocatorIS2_EEE3endEv, symObjAddr: 0x31A0, symBinAddr: 0x1000062F8, symSize: 0x2C }
  - { offsetInCU: 0xD95E, offset: 0xD95E, size: 0x8, addend: 0x0, symName: __ZNSt3__119__hash_map_iteratorINS_15__hash_iteratorIPNS_11__hash_nodeINS_17__hash_value_typeIiiEEPvEEEEEppB8ue170006Ev, symObjAddr: 0x3230, symBinAddr: 0x100006388, symSize: 0x2C }
  - { offsetInCU: 0xD984, offset: 0xD984, size: 0x8, addend: 0x0, symName: __ZNSt3__115__hash_iteratorIPNS_11__hash_nodeINS_17__hash_value_typeIiiEEPvEEEppB8ue170006Ev, symObjAddr: 0x325C, symBinAddr: 0x1000063B4, symSize: 0x20 }
  - { offsetInCU: 0xD9AA, offset: 0xD9AA, size: 0x8, addend: 0x0, symName: __ZNSt3__114pointer_traitsIPNS_4pairIKiiEEE10pointer_toB8ue170006ERS3_, symObjAddr: 0x327C, symBinAddr: 0x1000063D4, symSize: 0x14 }
  - { offsetInCU: 0xD9CD, offset: 0xD9CD, size: 0x8, addend: 0x0, symName: __ZNKSt3__115__hash_iteratorIPNS_11__hash_nodeINS_17__hash_value_typeIiiEEPvEEEptB8ue170006Ev, symObjAddr: 0x3290, symBinAddr: 0x1000063E8, symSize: 0x30 }
  - { offsetInCU: 0xD9F3, offset: 0xD9F3, size: 0x8, addend: 0x0, symName: __ZNSt3__114pointer_traitsIPNS_17__hash_value_typeIiiEEE10pointer_toB8ue170006ERS2_, symObjAddr: 0x32C0, symBinAddr: 0x100006418, symSize: 0x14 }
  - { offsetInCU: 0xDA16, offset: 0xDA16, size: 0x8, addend: 0x0, symName: __ZNSt3__111char_traitsIcE6lengthB8ue170006EPKc, symObjAddr: 0x34C8, symBinAddr: 0x100006620, symSize: 0x48 }
  - { offsetInCU: 0xDA57, offset: 0xDA57, size: 0x8, addend: 0x0, symName: __ZNKSt3__113basic_ostreamIcNS_11char_traitsIcEEE6sentrycvbB8ue170006Ev, symObjAddr: 0x3510, symBinAddr: 0x100006668, symSize: 0x1C }
  - { offsetInCU: 0xDA7D, offset: 0xDA7D, size: 0x8, addend: 0x0, symName: __ZNSt3__119ostreambuf_iteratorIcNS_11char_traitsIcEEEC1B8ue170006ERNS_13basic_ostreamIcS2_EE, symObjAddr: 0x3774, symBinAddr: 0x1000068CC, symSize: 0x34 }
  - { offsetInCU: 0xDAB4, offset: 0xDAB4, size: 0x8, addend: 0x0, symName: __ZNKSt3__18ios_base5flagsB8ue170006Ev, symObjAddr: 0x37A8, symBinAddr: 0x100006900, symSize: 0x18 }
  - { offsetInCU: 0xDADC, offset: 0xDADC, size: 0x8, addend: 0x0, symName: __ZNKSt3__19basic_iosIcNS_11char_traitsIcEEE4fillB8ue170006Ev, symObjAddr: 0x37C0, symBinAddr: 0x100006918, symSize: 0x64 }
  - { offsetInCU: 0xDB04, offset: 0xDB04, size: 0x8, addend: 0x0, symName: __ZNKSt3__119ostreambuf_iteratorIcNS_11char_traitsIcEEE6failedB8ue170006Ev, symObjAddr: 0x3824, symBinAddr: 0x10000697C, symSize: 0x24 }
  - { offsetInCU: 0xDB2A, offset: 0xDB2A, size: 0x8, addend: 0x0, symName: __ZNSt3__19basic_iosIcNS_11char_traitsIcEEE8setstateB8ue170006Ej, symObjAddr: 0x3848, symBinAddr: 0x1000069A0, symSize: 0x2C }
  - { offsetInCU: 0xDB5F, offset: 0xDB5F, size: 0x8, addend: 0x0, symName: __ZNKSt3__18ios_base5widthB8ue170006Ev, symObjAddr: 0x3874, symBinAddr: 0x1000069CC, symSize: 0x18 }
  - { offsetInCU: 0xDB87, offset: 0xDB87, size: 0x8, addend: 0x0, symName: __ZNSt3__115basic_streambufIcNS_11char_traitsIcEEE5sputnB8ue170006EPKcl, symObjAddr: 0x388C, symBinAddr: 0x1000069E4, symSize: 0x3C }
  - { offsetInCU: 0xDBC9, offset: 0xDBC9, size: 0x8, addend: 0x0, symName: __ZNSt3__112basic_stringIcNS_11char_traitsIcEENS_9allocatorIcEEEC1B8ue170006Emc, symObjAddr: 0x38C8, symBinAddr: 0x100006A20, symSize: 0x3C }
  - { offsetInCU: 0xDC10, offset: 0xDC10, size: 0x8, addend: 0x0, symName: __ZNKSt3__112basic_stringIcNS_11char_traitsIcEENS_9allocatorIcEEE4dataB8ue170006Ev, symObjAddr: 0x3904, symBinAddr: 0x100006A5C, symSize: 0x28 }
  - { offsetInCU: 0xDC36, offset: 0xDC36, size: 0x8, addend: 0x0, symName: __ZNSt3__18ios_base5widthB8ue170006El, symObjAddr: 0x392C, symBinAddr: 0x100006A84, symSize: 0x2C }
  - { offsetInCU: 0xDC7C, offset: 0xDC7C, size: 0x8, addend: 0x0, symName: __ZNSt3__112basic_stringIcNS_11char_traitsIcEENS_9allocatorIcEEEC2B8ue170006Emc, symObjAddr: 0x3958, symBinAddr: 0x100006AB0, symSize: 0x4C }
  - { offsetInCU: 0xDCC3, offset: 0xDCC3, size: 0x8, addend: 0x0, symName: __ZNSt3__117__compressed_pairINS_12basic_stringIcNS_11char_traitsIcEENS_9allocatorIcEEE5__repES5_EC1B8ue170006INS_18__default_init_tagESA_EEOT_OT0_, symObjAddr: 0x39A4, symBinAddr: 0x100006AFC, symSize: 0x3C }
  - { offsetInCU: 0xDD1A, offset: 0xDD1A, size: 0x8, addend: 0x0, symName: __ZNSt3__117__compressed_pairINS_12basic_stringIcNS_11char_traitsIcEENS_9allocatorIcEEE5__repES5_EC2B8ue170006INS_18__default_init_tagESA_EEOT_OT0_, symObjAddr: 0x39E0, symBinAddr: 0x100006B38, symSize: 0x3C }
  - { offsetInCU: 0xDD71, offset: 0xDD71, size: 0x8, addend: 0x0, symName: __ZNSt3__122__compressed_pair_elemINS_12basic_stringIcNS_11char_traitsIcEENS_9allocatorIcEEE5__repELi0ELb0EEC2B8ue170006ENS_18__default_init_tagE, symObjAddr: 0x3A1C, symBinAddr: 0x100006B74, symSize: 0x14 }
  - { offsetInCU: 0xDDA6, offset: 0xDDA6, size: 0x8, addend: 0x0, symName: __ZNSt3__122__compressed_pair_elemINS_9allocatorIcEELi1ELb1EEC2B8ue170006ENS_18__default_init_tagE, symObjAddr: 0x3A30, symBinAddr: 0x100006B88, symSize: 0x2C }
  - { offsetInCU: 0xDDDA, offset: 0xDDDA, size: 0x8, addend: 0x0, symName: __ZNSt3__19allocatorIcEC2B8ue170006Ev, symObjAddr: 0x3A5C, symBinAddr: 0x100006BB4, symSize: 0x2C }
  - { offsetInCU: 0xDE03, offset: 0xDE03, size: 0x8, addend: 0x0, symName: __ZNSt3__116__non_trivial_ifILb1ENS_9allocatorIcEEEC2B8ue170006Ev, symObjAddr: 0x3A88, symBinAddr: 0x100006BE0, symSize: 0x14 }
  - { offsetInCU: 0xDE2D, offset: 0xDE2D, size: 0x8, addend: 0x0, symName: __ZNKSt3__112basic_stringIcNS_11char_traitsIcEENS_9allocatorIcEEE13__get_pointerB8ue170006Ev, symObjAddr: 0x3AB0, symBinAddr: 0x100006C08, symSize: 0x54 }
  - { offsetInCU: 0xDE53, offset: 0xDE53, size: 0x8, addend: 0x0, symName: __ZNKSt3__112basic_stringIcNS_11char_traitsIcEENS_9allocatorIcEEE9__is_longB8ue170006Ev, symObjAddr: 0x3B04, symBinAddr: 0x100006C5C, symSize: 0x74 }
  - { offsetInCU: 0xDE79, offset: 0xDE79, size: 0x8, addend: 0x0, symName: __ZNKSt3__112basic_stringIcNS_11char_traitsIcEENS_9allocatorIcEEE18__get_long_pointerB8ue170006Ev, symObjAddr: 0x3B78, symBinAddr: 0x100006CD0, symSize: 0x28 }
  - { offsetInCU: 0xDE9F, offset: 0xDE9F, size: 0x8, addend: 0x0, symName: __ZNKSt3__112basic_stringIcNS_11char_traitsIcEENS_9allocatorIcEEE19__get_short_pointerB8ue170006Ev, symObjAddr: 0x3BA0, symBinAddr: 0x100006CF8, symSize: 0x28 }
  - { offsetInCU: 0xDEC5, offset: 0xDEC5, size: 0x8, addend: 0x0, symName: __ZNKSt3__117__compressed_pairINS_12basic_stringIcNS_11char_traitsIcEENS_9allocatorIcEEE5__repES5_E5firstB8ue170006Ev, symObjAddr: 0x3BC8, symBinAddr: 0x100006D20, symSize: 0x24 }
  - { offsetInCU: 0xDEEB, offset: 0xDEEB, size: 0x8, addend: 0x0, symName: __ZNKSt3__122__compressed_pair_elemINS_12basic_stringIcNS_11char_traitsIcEENS_9allocatorIcEEE5__repELi0ELb0EE5__getB8ue170006Ev, symObjAddr: 0x3BEC, symBinAddr: 0x100006D44, symSize: 0x14 }
  - { offsetInCU: 0xDF11, offset: 0xDF11, size: 0x8, addend: 0x0, symName: __ZNSt3__114pointer_traitsIPKcE10pointer_toB8ue170006ERS1_, symObjAddr: 0x3C00, symBinAddr: 0x100006D58, symSize: 0x14 }
  - { offsetInCU: 0xDF34, offset: 0xDF34, size: 0x8, addend: 0x0, symName: __ZNSt3__119ostreambuf_iteratorIcNS_11char_traitsIcEEEC2B8ue170006ERNS_13basic_ostreamIcS2_EE, symObjAddr: 0x3C14, symBinAddr: 0x100006D6C, symSize: 0x68 }
  - { offsetInCU: 0xDF6B, offset: 0xDF6B, size: 0x8, addend: 0x0, symName: __ZNKSt3__19basic_iosIcNS_11char_traitsIcEEE5rdbufB8ue170006Ev, symObjAddr: 0x3C7C, symBinAddr: 0x100006DD4, symSize: 0x24 }
  - { offsetInCU: 0xDF93, offset: 0xDF93, size: 0x8, addend: 0x0, symName: __ZNKSt3__18ios_base5rdbufB8ue170006Ev, symObjAddr: 0x3CA0, symBinAddr: 0x100006DF8, symSize: 0x18 }
  - { offsetInCU: 0xDFB9, offset: 0xDFB9, size: 0x8, addend: 0x0, symName: __ZNSt3__111char_traitsIcE11eq_int_typeB8ue170006Eii, symObjAddr: 0x3CB8, symBinAddr: 0x100006E10, symSize: 0x28 }
  - { offsetInCU: 0xDFEC, offset: 0xDFEC, size: 0x8, addend: 0x0, symName: __ZNSt3__111char_traitsIcE3eofB8ue170006Ev, symObjAddr: 0x3CE0, symBinAddr: 0x100006E38, symSize: 0x8 }
  - { offsetInCU: 0xE000, offset: 0xE000, size: 0x8, addend: 0x0, symName: __ZNKSt3__19basic_iosIcNS_11char_traitsIcEEE5widenB8ue170006Ec, symObjAddr: 0x3CE8, symBinAddr: 0x100006E40, symSize: 0x8C }
  - { offsetInCU: 0xE06E, offset: 0xE06E, size: 0x8, addend: 0x0, symName: __ZNKSt3__15ctypeIcE5widenB8ue170006Ec, symObjAddr: 0x3DA0, symBinAddr: 0x100006EF8, symSize: 0x38 }
  - { offsetInCU: 0xE0A3, offset: 0xE0A3, size: 0x8, addend: 0x0, symName: __ZNSt3__18ios_base8setstateB8ue170006Ej, symObjAddr: 0x3DD8, symBinAddr: 0x100006F30, symSize: 0x34 }
  - { offsetInCU: 0xE0DA, offset: 0xE0DA, size: 0x8, addend: 0x0, symName: __ZNSt3__112__hash_tableINS_17__hash_value_typeIiiEENS_22__unordered_map_hasherIiS2_NS_4hashIiEENS_8equal_toIiEELb1EEENS_21__unordered_map_equalIiS2_S7_S5_Lb1EEENS_9allocatorIS2_EEE4findIiEENS_15__hash_iteratorIPNS_11__hash_nodeIS2_PvEEEERKT_, symObjAddr: 0x3E30, symBinAddr: 0x100006F88, symSize: 0x1B0 }
  - { offsetInCU: 0xE164, offset: 0xE164, size: 0x8, addend: 0x0, symName: __ZNKSt3__122__unordered_map_hasherIiNS_17__hash_value_typeIiiEENS_4hashIiEENS_8equal_toIiEELb1EEclB8ue170006ERKi, symObjAddr: 0x3FE0, symBinAddr: 0x100007138, symSize: 0x30 }
  - { offsetInCU: 0xE199, offset: 0xE199, size: 0x8, addend: 0x0, symName: __ZNKSt3__121__unordered_map_equalIiNS_17__hash_value_typeIiiEENS_8equal_toIiEENS_4hashIiEELb1EEclB8ue170006ERKS2_RKi, symObjAddr: 0x4010, symBinAddr: 0x100007168, symSize: 0x48 }
  - { offsetInCU: 0xE1DD, offset: 0xE1DD, size: 0x8, addend: 0x0, symName: __ZNSt3__112__hash_tableINS_17__hash_value_typeIiiEENS_22__unordered_map_hasherIiS2_NS_4hashIiEENS_8equal_toIiEELb1EEENS_21__unordered_map_equalIiS2_S7_S5_Lb1EEENS_9allocatorIS2_EEE14__erase_uniqueIiEEmRKT_, symObjAddr: 0x4058, symBinAddr: 0x1000071B0, symSize: 0x98 }
  - { offsetInCU: 0xE22C, offset: 0xE22C, size: 0x8, addend: 0x0, symName: __ZNSt3__112__hash_tableINS_17__hash_value_typeIiiEENS_22__unordered_map_hasherIiS2_NS_4hashIiEENS_8equal_toIiEELb1EEENS_21__unordered_map_equalIiS2_S7_S5_Lb1EEENS_9allocatorIS2_EEE5eraseENS_21__hash_const_iteratorIPNS_11__hash_nodeIS2_PvEEEE, symObjAddr: 0x40F0, symBinAddr: 0x100007248, symSize: 0x70 }
  - { offsetInCU: 0xE281, offset: 0xE281, size: 0x8, addend: 0x0, symName: __ZNSt3__121__hash_const_iteratorIPNS_11__hash_nodeINS_17__hash_value_typeIiiEEPvEEEC1B8ue170006ERKNS_15__hash_iteratorIS6_EE, symObjAddr: 0x4160, symBinAddr: 0x1000072B8, symSize: 0x34 }
  - { offsetInCU: 0xE2B9, offset: 0xE2B9, size: 0x8, addend: 0x0, symName: __ZNSt3__112__hash_tableINS_17__hash_value_typeIiiEENS_22__unordered_map_hasherIiS2_NS_4hashIiEENS_8equal_toIiEELb1EEENS_21__unordered_map_equalIiS2_S7_S5_Lb1EEENS_9allocatorIS2_EEE6removeENS_21__hash_const_iteratorIPNS_11__hash_nodeIS2_PvEEEE, symObjAddr: 0x4194, symBinAddr: 0x1000072EC, symSize: 0x220 }
  - { offsetInCU: 0xE34A, offset: 0xE34A, size: 0x8, addend: 0x0, symName: __ZNSt3__110unique_ptrINS_11__hash_nodeINS_17__hash_value_typeIiiEEPvEENS_22__hash_node_destructorINS_9allocatorIS5_EEEEED1B8ue170006Ev, symObjAddr: 0x43B4, symBinAddr: 0x10000750C, symSize: 0x2C }
  - { offsetInCU: 0xE373, offset: 0xE373, size: 0x8, addend: 0x0, symName: __ZNSt3__122__hash_node_destructorINS_9allocatorINS_11__hash_nodeINS_17__hash_value_typeIiiEEPvEEEEEC1B8ue170006ERS7_b, symObjAddr: 0x43E0, symBinAddr: 0x100007538, symSize: 0x48 }
  - { offsetInCU: 0xE3BF, offset: 0xE3BF, size: 0x8, addend: 0x0, symName: __ZNSt3__110unique_ptrINS_11__hash_nodeINS_17__hash_value_typeIiiEEPvEENS_22__hash_node_destructorINS_9allocatorIS5_EEEEEC1B8ue170006ILb1EvEEPS5_NS_16__dependent_typeINS_27__unique_ptr_deleter_sfinaeIS9_EEXT_EE20__good_rval_ref_typeE, symObjAddr: 0x4428, symBinAddr: 0x100007580, symSize: 0x3C }
  - { offsetInCU: 0xE40F, offset: 0xE40F, size: 0x8, addend: 0x0, symName: __ZNSt3__122__hash_node_destructorINS_9allocatorINS_11__hash_nodeINS_17__hash_value_typeIiiEEPvEEEEEC2B8ue170006ERS7_b, symObjAddr: 0x4464, symBinAddr: 0x1000075BC, symSize: 0x38 }
  - { offsetInCU: 0xE457, offset: 0xE457, size: 0x8, addend: 0x0, symName: __ZNSt3__110unique_ptrINS_11__hash_nodeINS_17__hash_value_typeIiiEEPvEENS_22__hash_node_destructorINS_9allocatorIS5_EEEEEC2B8ue170006ILb1EvEEPS5_NS_16__dependent_typeINS_27__unique_ptr_deleter_sfinaeIS9_EEXT_EE20__good_rval_ref_typeE, symObjAddr: 0x449C, symBinAddr: 0x1000075F4, symSize: 0x5C }
  - { offsetInCU: 0xE4A7, offset: 0xE4A7, size: 0x8, addend: 0x0, symName: __ZNSt3__117__compressed_pairIPNS_11__hash_nodeINS_17__hash_value_typeIiiEEPvEENS_22__hash_node_destructorINS_9allocatorIS5_EEEEEC1B8ue170006IRS6_SA_EEOT_OT0_, symObjAddr: 0x44F8, symBinAddr: 0x100007650, symSize: 0x3C }
  - { offsetInCU: 0xE4FE, offset: 0xE4FE, size: 0x8, addend: 0x0, symName: __ZNSt3__117__compressed_pairIPNS_11__hash_nodeINS_17__hash_value_typeIiiEEPvEENS_22__hash_node_destructorINS_9allocatorIS5_EEEEEC2B8ue170006IRS6_SA_EEOT_OT0_, symObjAddr: 0x4534, symBinAddr: 0x10000768C, symSize: 0x48 }
  - { offsetInCU: 0xE555, offset: 0xE555, size: 0x8, addend: 0x0, symName: __ZNSt3__122__compressed_pair_elemINS_22__hash_node_destructorINS_9allocatorINS_11__hash_nodeINS_17__hash_value_typeIiiEEPvEEEEEELi1ELb0EEC2B8ue170006IS9_vEEOT_, symObjAddr: 0x457C, symBinAddr: 0x1000076D4, symSize: 0x24 }
  - { offsetInCU: 0xE597, offset: 0xE597, size: 0x8, addend: 0x0, symName: __ZNSt3__110unique_ptrINS_11__hash_nodeINS_17__hash_value_typeIiiEEPvEENS_22__hash_node_destructorINS_9allocatorIS5_EEEEED2B8ue170006Ev, symObjAddr: 0x45A0, symBinAddr: 0x1000076F8, symSize: 0x30 }
  - { offsetInCU: 0xE5C0, offset: 0xE5C0, size: 0x8, addend: 0x0, symName: __ZNSt3__110unique_ptrINS_11__hash_nodeINS_17__hash_value_typeIiiEEPvEENS_22__hash_node_destructorINS_9allocatorIS5_EEEEE5resetB8ue170006EPS5_, symObjAddr: 0x45D0, symBinAddr: 0x100007728, symSize: 0x78 }
  - { offsetInCU: 0xE604, offset: 0xE604, size: 0x8, addend: 0x0, symName: __ZNSt3__117__compressed_pairIPNS_11__hash_nodeINS_17__hash_value_typeIiiEEPvEENS_22__hash_node_destructorINS_9allocatorIS5_EEEEE5firstB8ue170006Ev, symObjAddr: 0x4648, symBinAddr: 0x1000077A0, symSize: 0x24 }
  - { offsetInCU: 0xE62A, offset: 0xE62A, size: 0x8, addend: 0x0, symName: __ZNSt3__117__compressed_pairIPNS_11__hash_nodeINS_17__hash_value_typeIiiEEPvEENS_22__hash_node_destructorINS_9allocatorIS5_EEEEE6secondB8ue170006Ev, symObjAddr: 0x466C, symBinAddr: 0x1000077C4, symSize: 0x28 }
  - { offsetInCU: 0xE650, offset: 0xE650, size: 0x8, addend: 0x0, symName: __ZNSt3__122__hash_node_destructorINS_9allocatorINS_11__hash_nodeINS_17__hash_value_typeIiiEEPvEEEEEclB8ue170006EPS6_, symObjAddr: 0x4694, symBinAddr: 0x1000077EC, symSize: 0xA8 }
  - { offsetInCU: 0xE685, offset: 0xE685, size: 0x8, addend: 0x0, symName: __ZNSt3__122__compressed_pair_elemINS_22__hash_node_destructorINS_9allocatorINS_11__hash_nodeINS_17__hash_value_typeIiiEEPvEEEEEELi1ELb0EE5__getB8ue170006Ev, symObjAddr: 0x473C, symBinAddr: 0x100007894, symSize: 0x14 }
  - { offsetInCU: 0xE6AB, offset: 0xE6AB, size: 0x8, addend: 0x0, symName: __ZNSt3__121__hash_const_iteratorIPNS_11__hash_nodeINS_17__hash_value_typeIiiEEPvEEEC2B8ue170006ERKNS_15__hash_iteratorIS6_EE, symObjAddr: 0x4750, symBinAddr: 0x1000078A8, symSize: 0x24 }
...
